; Function Attrs: nounwind uwtable
define internal fastcc range(i32 0, 2) i32 @r_mark_ymUs_(ptr noundef %0) unnamed_addr #0 {
  %2 = tail call fastcc i32 @r_check_vowel_harmony(ptr noundef %0)
  %.not.not.not = icmp eq i32 %2, 0
  br i1 %.not.not.not, label %19, label %3

3:                                                ; preds = %1
  %4 = getelementptr inbounds nuw i8, ptr %0, i64 8
  %5 = load i32, ptr %4, align 8
  %6 = add i32 %5, -3
  %7 = getelementptr inbounds nuw i8, ptr %0, i64 16
  %8 = load i32, ptr %7, align 8
  %.not = icmp sgt i32 %6, %8
  br i1 %.not, label %9, label %19

9:                                                ; preds = %3
  %10 = load ptr, ptr %0, align 8
  %11 = add i32 %5, -1
  %12 = sext i32 %11 to i64
  %13 = getelementptr inbounds i8, ptr %10, i64 %12
  %14 = load i8, ptr %13, align 1
  %.not15 = icmp eq i8 %14, -97
  br i1 %.not15, label %15, label %19

15:                                               ; preds = %9
  %16 = tail call i32 @find_among_b(ptr noundef nonnull %0, ptr noundef nonnull @a_22, i32 noundef 4) #3
  %.not16 = icmp eq i32 %16, 0
  br i1 %.not16, label %19, label %17

17:                                               ; preds = %15
  %18 = tail call fastcc i32 @r_mark_suffix_with_optional_y_consonant(ptr noundef nonnull %0)
  br label %19

19:                                               ; preds = %17, %1, %15, %3, %9
  %.1 = phi i32 [ 0, %1 ], [ 0, %9 ], [ 0, %3 ], [ 0, %15 ], [ %18, %17 ]
  ret i32 %.1
}